target datalayout = "e-m:e-p270:32:32-p271:32:32-p272:64:64-i64:64-i128:128-f80:128-n8:16:32:64-S128"
target triple = "x86_64-pc-linux-gnu"

%class.SuperWord = type { ptr, ptr, %class.Arena, ptr, %class.PairSet, %class.PackSet, ptr, i32, i8, i32, i32 }
%class.Arena = type { i8, i8, i64, ptr, ptr, ptr, ptr }
%class.PairSet = type { ptr, ptr, %class.GrowableArray, %class.GrowableArray, %class.GrowableArray }
%class.GrowableArray = type { %class.GrowableArrayWithAllocator, %class.GrowableArrayMetadata }
%class.GrowableArrayWithAllocator = type { %class.GrowableArrayView }
%class.GrowableArrayView = type { %class.GrowableArrayBase, ptr }
%class.GrowableArrayBase = type { i32, i32 }
%class.GrowableArrayMetadata = type { i64 }
%class.PackSet = type { ptr, ptr, %class.GrowableArray.0, %class.GrowableArray.0 }
%class.GrowableArray.0 = type { %class.GrowableArrayWithAllocator.1, %class.GrowableArrayMetadata }
%class.GrowableArrayWithAllocator.1 = type { %class.GrowableArrayView.2 }
%class.GrowableArrayView.2 = type { %class.GrowableArrayBase, ptr }
%class.VLoopAnalyzer = type { ptr, %class.Arena, i8, %class.VLoopReductions, %class.VLoopMemorySlices, %class.VLoopBody, %class.VLoopTypes, %class.VLoopVPointers, %class.VLoopDependencyGraph }
%class.VLoopReductions = type { ptr, %class.VectorSet }
%class.VectorSet = type { i32, ptr, i32, ptr }
%class.VLoopMemorySlices = type { ptr, %class.GrowableArray.3, %class.GrowableArray.6 }
%class.GrowableArray.3 = type { %class.GrowableArrayWithAllocator.4, %class.GrowableArrayMetadata }
%class.GrowableArrayWithAllocator.4 = type { %class.GrowableArrayView.5 }
%class.GrowableArrayView.5 = type { %class.GrowableArrayBase, ptr }
%class.GrowableArray.6 = type { %class.GrowableArrayWithAllocator.7, %class.GrowableArrayMetadata }
%class.GrowableArrayWithAllocator.7 = type { %class.GrowableArrayView.8 }
%class.GrowableArrayView.8 = type { %class.GrowableArrayBase, ptr }
%class.VLoopBody = type { ptr, %class.GrowableArray.9, ptr }
%class.GrowableArray.9 = type { %class.GrowableArrayWithAllocator.10, %class.GrowableArrayMetadata }
%class.GrowableArrayWithAllocator.10 = type { %class.GrowableArrayView.11 }
%class.GrowableArrayView.11 = type { %class.GrowableArrayBase, ptr }
%class.VLoopTypes = type { ptr, ptr, %class.GrowableArray.12 }
%class.GrowableArray.12 = type { %class.GrowableArrayWithAllocator.13, %class.GrowableArrayMetadata }
%class.GrowableArrayWithAllocator.13 = type { %class.GrowableArrayView.14 }
%class.GrowableArrayView.14 = type { %class.GrowableArrayBase, ptr }
%class.VLoopVPointers = type { ptr, ptr, ptr, ptr, i32, %class.GrowableArray }
%class.VLoopDependencyGraph = type { ptr, ptr, ptr, ptr, ptr, %class.GrowableArray.15, %class.GrowableArray }
%class.GrowableArray.15 = type { %class.GrowableArrayWithAllocator.16, %class.GrowableArrayMetadata }
%class.GrowableArrayWithAllocator.16 = type { %class.GrowableArrayView.17 }
%class.GrowableArrayView.17 = type { %class.GrowableArrayBase, ptr }
%class.Node = type <{ ptr, ptr, ptr, i32, i32, i32, i32, i32, i32, i32, [4 x i8] }>

@_type2aelembytes = external global [20 x i32], align 16

; Function Attrs: mustprogress nounwind uwtable
define linkonce_odr hidden noundef nonnull align 4 dereferenceable(4) ptr @_ZN17GrowableArrayViewIiE2atEi(ptr noundef nonnull align 8 dereferenceable(16) %0, i32 noundef %1) #1 comdat align 2 {
  %3 = alloca ptr, align 8
  %4 = alloca i32, align 4
  store ptr %0, ptr %3, align 8
  store i32 %1, ptr %4, align 4
  %5 = load ptr, ptr %3, align 8
  %6 = getelementptr inbounds %class.GrowableArrayView, ptr %5, i32 0, i32 1
  %7 = load ptr, ptr %6, align 8
  %8 = load i32, ptr %4, align 4
  %9 = sext i32 %8 to i64
  %10 = getelementptr inbounds i32, ptr %7, i64 %9
  ret ptr %10
}

; Function Attrs: mustprogress nounwind uwtable
define linkonce_odr hidden noundef nonnull align 8 dereferenceable(8) ptr @_ZNK17GrowableArrayViewIPK4TypeE2atEi(ptr noundef nonnull align 8 dereferenceable(16) %0, i32 noundef %1) #1 comdat align 2 {
  %3 = alloca ptr, align 8
  %4 = alloca i32, align 4
  store ptr %0, ptr %3, align 8
  store i32 %1, ptr %4, align 4
  %5 = load ptr, ptr %3, align 8
  %6 = getelementptr inbounds %class.GrowableArrayView.14, ptr %5, i32 0, i32 1
  %7 = load ptr, ptr %6, align 8
  %8 = load i32, ptr %4, align 4
  %9 = sext i32 %8 to i64
  %10 = getelementptr inbounds ptr, ptr %7, i64 %9
  ret ptr %10
}

; Function Attrs: mustprogress nounwind uwtable
define linkonce_odr hidden noundef i32 @_ZNK9VLoopBody6bb_idxEPK4Node(ptr noundef nonnull align 8 dereferenceable(40) %0, ptr noundef %1) #1 comdat align 2 {
  %3 = alloca ptr, align 8
  %4 = alloca ptr, align 8
  store ptr %0, ptr %3, align 8
  store ptr %1, ptr %4, align 8
  %5 = load ptr, ptr %3, align 8
  %6 = getelementptr inbounds %class.VLoopBody, ptr %5, i32 0, i32 2
  %7 = load ptr, ptr %6, align 8
  %8 = load ptr, ptr %4, align 8
  %9 = getelementptr inbounds %class.Node, ptr %8, i32 0, i32 7
  %10 = load i32, ptr %9, align 8
  %11 = call noundef nonnull align 4 dereferenceable(4) ptr @_ZN17GrowableArrayViewIiE2atEi(ptr noundef nonnull align 8 dereferenceable(16) %7, i32 noundef %10)
  %12 = load i32, ptr %11, align 4
  ret i32 %12
}

; Function Attrs: mustprogress nounwind uwtable
define linkonce_odr hidden noundef ptr @_ZNK10VLoopTypes9velt_typeEPK4Node(ptr noundef nonnull align 8 dereferenceable(40) %0, ptr noundef %1) #1 comdat align 2 {
  %3 = alloca ptr, align 8
  %4 = alloca ptr, align 8
  %5 = alloca ptr, align 8
  store ptr %0, ptr %3, align 8
  store ptr %1, ptr %4, align 8
  %6 = load ptr, ptr %3, align 8
  %7 = getelementptr inbounds %class.VLoopTypes, ptr %6, i32 0, i32 2
  %8 = getelementptr inbounds %class.VLoopTypes, ptr %6, i32 0, i32 1
  %9 = load ptr, ptr %8, align 8
  %10 = load ptr, ptr %4, align 8
  %11 = call noundef i32 @_ZNK9VLoopBody6bb_idxEPK4Node(ptr noundef nonnull align 8 dereferenceable(40) %9, ptr noundef %10)
  %12 = call noundef nonnull align 8 dereferenceable(8) ptr @_ZNK17GrowableArrayViewIPK4TypeE2atEi(ptr noundef nonnull align 8 dereferenceable(16) %7, i32 noundef %11)
  %13 = load ptr, ptr %12, align 8
  store ptr %13, ptr %5, align 8
  %14 = load ptr, ptr %5, align 8
  ret ptr %14
}

; Function Attrs: mustprogress nounwind uwtable
define linkonce_odr hidden noundef zeroext i8 @_ZNK10VLoopTypes15velt_basic_typeEPK4Node(ptr noundef nonnull align 8 dereferenceable(40) %0, ptr noundef %1) #1 comdat align 2 {
  %3 = alloca ptr, align 8
  %4 = alloca ptr, align 8
  store ptr %0, ptr %3, align 8
  store ptr %1, ptr %4, align 8
  %5 = load ptr, ptr %3, align 8
  %6 = load ptr, ptr %4, align 8
  %7 = call noundef ptr @_ZNK10VLoopTypes9velt_typeEPK4Node(ptr noundef nonnull align 8 dereferenceable(40) %5, ptr noundef %6)
  %8 = call noundef zeroext i8 @_ZNK4Type24array_element_basic_typeEv(ptr noundef nonnull align 8 dereferenceable(20) %7)
  ret i8 %8
}

; Function Attrs: mustprogress nounwind uwtable
define linkonce_odr hidden noundef nonnull align 8 dereferenceable(40) ptr @_ZNK13VLoopAnalyzer5typesEv(ptr noundef nonnull align 8 dereferenceable(392) %0) #1 comdat align 2 {
  %2 = alloca ptr, align 8
  store ptr %0, ptr %2, align 8
  %3 = load ptr, ptr %2, align 8
  %4 = getelementptr inbounds %class.VLoopAnalyzer, ptr %3, i32 0, i32 6
  ret ptr %4
}

; Function Attrs: mustprogress nounwind uwtable
define linkonce_odr hidden noundef i32 @_Z15type2aelembytes9BasicTypeb(i8 noundef zeroext %0, i1 noundef zeroext %1) #1 comdat {
  %3 = alloca i8, align 1
  %4 = alloca i8, align 1
  store i8 %0, ptr %3, align 1
  %5 = zext i1 %1 to i8
  store i8 %5, ptr %4, align 1
  %6 = load i8, ptr %3, align 1
  %7 = zext i8 %6 to i64
  %8 = getelementptr inbounds [20 x i32], ptr @_type2aelembytes, i64 0, i64 %7
  %9 = load i32, ptr %8, align 4
  ret i32 %9
}

; Function Attrs: mustprogress nounwind uwtable
define linkonce_odr hidden noundef zeroext i8 @_ZNK9SuperWord15velt_basic_typeEP4Node(ptr noundef nonnull align 8 dereferenceable(248) %0, ptr noundef %1) #1 comdat align 2 {
  %3 = alloca ptr, align 8
  %4 = alloca ptr, align 8
  store ptr %0, ptr %3, align 8
  store ptr %1, ptr %4, align 8
  %5 = load ptr, ptr %3, align 8
  %6 = getelementptr inbounds %class.SuperWord, ptr %5, i32 0, i32 0
  %7 = load ptr, ptr %6, align 8
  %8 = call noundef nonnull align 8 dereferenceable(40) ptr @_ZNK13VLoopAnalyzer5typesEv(ptr noundef nonnull align 8 dereferenceable(392) %7)
  %9 = load ptr, ptr %4, align 8
  %10 = call noundef zeroext i8 @_ZNK10VLoopTypes15velt_basic_typeEPK4Node(ptr noundef nonnull align 8 dereferenceable(40) %8, ptr noundef %9)
  ret i8 %10
}

; Function Attrs: mustprogress nounwind uwtable
define hidden noundef zeroext i1 @_ZNK9SuperWord37is_velt_basic_type_compatible_use_defEP4NodeS1_(ptr noundef nonnull align 8 dereferenceable(248) %0, ptr noundef %1, ptr noundef %2) #1 align 2 {
  %4 = alloca i1, align 1
  %5 = alloca ptr, align 8
  %6 = alloca ptr, align 8
  %7 = alloca ptr, align 8
  %8 = alloca i8, align 1
  %9 = alloca i8, align 1
  store ptr %0, ptr %5, align 8
  store ptr %1, ptr %6, align 8
  store ptr %2, ptr %7, align 8
  %10 = load ptr, ptr %5, align 8
  %11 = load ptr, ptr %6, align 8
  %12 = load ptr, ptr %11, align 8
  %13 = getelementptr inbounds ptr, ptr %12, i64 0
  %14 = load ptr, ptr %13, align 8
  %15 = call noundef i32 %14(ptr noundef nonnull align 8 dereferenceable(52) %11)
  %16 = call noundef zeroext i1 @_ZN10VectorNode17is_convert_opcodeEi(i32 noundef %15)
  br i1 %16, label %17, label %18

17:                                               ; preds = %3
  store i1 true, ptr %4, align 1
  br label %58

18:                                               ; preds = %3
  %19 = load ptr, ptr %6, align 8
  %20 = call noundef zeroext i8 @_ZNK9SuperWord15velt_basic_typeEP4Node(ptr noundef nonnull align 8 dereferenceable(248) %10, ptr noundef %19)
  store i8 %20, ptr %8, align 1
  %21 = load ptr, ptr %7, align 8
  %22 = call noundef zeroext i8 @_ZNK9SuperWord15velt_basic_typeEP4Node(ptr noundef nonnull align 8 dereferenceable(248) %10, ptr noundef %21)
  store i8 %22, ptr %9, align 1
  %23 = load ptr, ptr %6, align 8
  %24 = load ptr, ptr %23, align 8
  %25 = getelementptr inbounds ptr, ptr %24, i64 0
  %26 = load ptr, ptr %25, align 8
  %27 = call noundef i32 %26(ptr noundef nonnull align 8 dereferenceable(52) %23)
  %28 = call noundef zeroext i1 @_ZN10VectorNode56is_scalar_op_that_returns_int_but_vector_op_returns_longEi(i32 noundef %27)
  br i1 %28, label %29, label %39

29:                                               ; preds = %18
  %30 = load i8, ptr %9, align 1
  %31 = call noundef i32 @_Z15type2aelembytes9BasicTypeb(i8 noundef zeroext %30, i1 noundef zeroext false)
  %32 = icmp eq i32 %31, 8
  br i1 %32, label %33, label %37

33:                                               ; preds = %29
  %34 = load i8, ptr %8, align 1
  %35 = call noundef i32 @_Z15type2aelembytes9BasicTypeb(i8 noundef zeroext %34, i1 noundef zeroext false)
  %36 = icmp eq i32 %35, 4
  br label %37

37:                                               ; preds = %33, %29
  %38 = phi i1 [ false, %29 ], [ %36, %33 ]
  store i1 %38, ptr %4, align 1
  br label %58

39:                                               ; preds = %18
  %40 = load ptr, ptr %6, align 8
  %41 = call noundef zeroext i1 @_ZN10VectorNode12is_muladds2iEPK4Node(ptr noundef %40)
  br i1 %41, label %42, label %52

42:                                               ; preds = %39
  %43 = load i8, ptr %9, align 1
  %44 = call noundef i32 @_Z15type2aelembytes9BasicTypeb(i8 noundef zeroext %43, i1 noundef zeroext false)
  %45 = icmp eq i32 %44, 2
  br i1 %45, label %46, label %50

46:                                               ; preds = %42
  %47 = load i8, ptr %8, align 1
  %48 = call noundef i32 @_Z15type2aelembytes9BasicTypeb(i8 noundef zeroext %47, i1 noundef zeroext false)
  %49 = icmp eq i32 %48, 4
  br label %50

50:                                               ; preds = %46, %42
  %51 = phi i1 [ false, %42 ], [ %49, %46 ]
  store i1 %51, ptr %4, align 1
  br label %58

52:                                               ; preds = %39
  %53 = load i8, ptr %8, align 1
  %54 = call noundef i32 @_Z15type2aelembytes9BasicTypeb(i8 noundef zeroext %53, i1 noundef zeroext false)
  %55 = load i8, ptr %9, align 1
  %56 = call noundef i32 @_Z15type2aelembytes9BasicTypeb(i8 noundef zeroext %55, i1 noundef zeroext false)
  %57 = icmp eq i32 %54, %56
  store i1 %57, ptr %4, align 1
  br label %58

58:                                               ; preds = %52, %50, %37, %17
  %59 = load i1, ptr %4, align 1
  ret i1 %59
}