; Function Attrs: mustprogress nounwind uwtable
define hidden noundef zeroext i1 @_ZNK9SuperWord37is_velt_basic_type_compatible_use_defEP4NodeS1_(ptr nocapture noundef nonnull readonly align 8 dereferenceable(248) %0, ptr noundef %1, ptr nocapture noundef readonly %2) local_unnamed_addr #0 align 2 {
  %4 = load ptr, ptr %1, align 8
  %5 = load ptr, ptr %4, align 8
  %6 = tail call noundef i32 %5(ptr noundef nonnull align 8 dereferenceable(52) %1) #12
  %7 = tail call noundef zeroext i1 @_ZN10VectorNode17is_convert_opcodeEi(i32 noundef %6) #12
  br i1 %7, label %79, label %8

8:                                                ; preds = %3
  %9 = load ptr, ptr %0, align 8
  %10 = getelementptr inbounds i8, ptr %9, i64 208
  %11 = load ptr, ptr %10, align 8
  %12 = getelementptr inbounds i8, ptr %11, i64 32
  %13 = load ptr, ptr %12, align 8
  %14 = getelementptr inbounds i8, ptr %1, i64 40
  %15 = load i32, ptr %14, align 8
  %16 = getelementptr inbounds i8, ptr %13, i64 8
  %17 = load ptr, ptr %16, align 8
  %18 = sext i32 %15 to i64
  %19 = getelementptr inbounds i32, ptr %17, i64 %18
  %20 = load i32, ptr %19, align 4
  %21 = getelementptr inbounds i8, ptr %9, i64 224
  %22 = load ptr, ptr %21, align 8
  %23 = sext i32 %20 to i64
  %24 = getelementptr inbounds ptr, ptr %22, i64 %23
  %25 = load ptr, ptr %24, align 8
  %26 = tail call noundef zeroext i8 @_ZNK4Type24array_element_basic_typeEv(ptr noundef nonnull align 8 dereferenceable(20) %25) #12
  %27 = load ptr, ptr %0, align 8
  %28 = getelementptr inbounds i8, ptr %27, i64 208
  %29 = load ptr, ptr %28, align 8
  %30 = getelementptr inbounds i8, ptr %29, i64 32
  %31 = load ptr, ptr %30, align 8
  %32 = getelementptr inbounds i8, ptr %2, i64 40
  %33 = load i32, ptr %32, align 8
  %34 = getelementptr inbounds i8, ptr %31, i64 8
  %35 = load ptr, ptr %34, align 8
  %36 = sext i32 %33 to i64
  %37 = getelementptr inbounds i32, ptr %35, i64 %36
  %38 = load i32, ptr %37, align 4
  %39 = getelementptr inbounds i8, ptr %27, i64 224
  %40 = load ptr, ptr %39, align 8
  %41 = sext i32 %38 to i64
  %42 = getelementptr inbounds ptr, ptr %40, i64 %41
  %43 = load ptr, ptr %42, align 8
  %44 = tail call noundef zeroext i8 @_ZNK4Type24array_element_basic_typeEv(ptr noundef nonnull align 8 dereferenceable(20) %43) #12
  %45 = load ptr, ptr %1, align 8
  %46 = load ptr, ptr %45, align 8
  %47 = tail call noundef i32 %46(ptr noundef nonnull align 8 dereferenceable(52) %1) #12
  %48 = tail call noundef zeroext i1 @_ZN10VectorNode56is_scalar_op_that_returns_int_but_vector_op_returns_longEi(i32 noundef %47) #12
  br i1 %48, label %49, label %59

49:                                               ; preds = %8
  %50 = zext i8 %44 to i64
  %51 = getelementptr inbounds [20 x i32], ptr @_type2aelembytes, i64 0, i64 %50
  %52 = load i32, ptr %51, align 4
  %53 = icmp eq i32 %52, 8
  br i1 %53, label %54, label %79

54:                                               ; preds = %49
  %55 = zext i8 %26 to i64
  %56 = getelementptr inbounds [20 x i32], ptr @_type2aelembytes, i64 0, i64 %55
  %57 = load i32, ptr %56, align 4
  %58 = icmp eq i32 %57, 4
  br label %79

59:                                               ; preds = %8
  %60 = tail call noundef zeroext i1 @_ZN10VectorNode12is_muladds2iEPK4Node(ptr noundef nonnull %1) #12
  br i1 %60, label %61, label %71

61:                                               ; preds = %59
  %62 = zext i8 %44 to i64
  %63 = getelementptr inbounds [20 x i32], ptr @_type2aelembytes, i64 0, i64 %62
  %64 = load i32, ptr %63, align 4
  %65 = icmp eq i32 %64, 2
  br i1 %65, label %66, label %79

66:                                               ; preds = %61
  %67 = zext i8 %26 to i64
  %68 = getelementptr inbounds [20 x i32], ptr @_type2aelembytes, i64 0, i64 %67
  %69 = load i32, ptr %68, align 4
  %70 = icmp eq i32 %69, 4
  br label %79

71:                                               ; preds = %59
  %72 = zext i8 %26 to i64
  %73 = getelementptr inbounds [20 x i32], ptr @_type2aelembytes, i64 0, i64 %72
  %74 = load i32, ptr %73, align 4
  %75 = zext i8 %44 to i64
  %76 = getelementptr inbounds [20 x i32], ptr @_type2aelembytes, i64 0, i64 %75
  %77 = load i32, ptr %76, align 4
  %78 = icmp eq i32 %74, %77
  br label %79

79:                                               ; preds = %61, %66, %49, %54, %3, %71
  %.0 = phi i1 [ %78, %71 ], [ true, %3 ], [ false, %49 ], [ %58, %54 ], [ false, %61 ], [ %70, %66 ]
  ret i1 %.0
}